; Function Attrs: mustprogress uwtable
define hidden noundef i32 @_ZNK5ceres8internal34PowerSeriesExpansionPreconditioner8num_rowsEv(ptr nocapture noundef nonnull readonly align 8 dereferenceable(104) %0) unnamed_addr #0 align 2 {
  %2 = getelementptr inbounds i8, ptr %0, i64 8
  %3 = load ptr, ptr %2, align 8
  %4 = getelementptr inbounds i8, ptr %3, i64 24
  %5 = load ptr, ptr %4, align 8
  %6 = load ptr, ptr %5, align 8
  %7 = getelementptr inbounds i8, ptr %6, i64 136
  %8 = load ptr, ptr %7, align 8
  %9 = tail call noundef i32 %8(ptr noundef nonnull align 8 dereferenceable(8) %5)
  ret i32 %9
}